; Function Attrs: mustprogress uwtable
define hidden void @_ZN2cv4gapi5fluid24ViewPrivWithoutOwnBorder13prepareToReadEv(ptr noundef nonnull readonly align 8 captures(none) dereferenceable(112) %0) unnamed_addr #4 align 2 {
  %2 = getelementptr inbounds nuw i8, ptr %0, i64 88
  %3 = load ptr, ptr %2, align 8, !tbaa !88
  %4 = load ptr, ptr %3, align 8, !tbaa !89
  %5 = getelementptr inbounds nuw i8, ptr %4, i64 160
  %6 = load ptr, ptr %5, align 8, !tbaa !114
  %7 = getelementptr inbounds nuw i8, ptr %0, i64 96
  %8 = load i32, ptr %7, align 8, !tbaa !109
  %9 = getelementptr inbounds nuw i8, ptr %0, i64 104
  %10 = load i32, ptr %9, align 8, !tbaa !128
  %11 = sub i32 %8, %10
  %12 = getelementptr inbounds nuw i8, ptr %0, i64 8
  %13 = getelementptr inbounds nuw i8, ptr %0, i64 100
  %14 = load i32, ptr %13, align 4, !tbaa !85
  %15 = icmp sgt i32 %14, 0
  br i1 %15, label %.lr.ph.i, label %_ZNK2cv4gapi5fluid13BufferStorage13updateInCacheERNS1_4View5CacheEii.exit

.lr.ph.i:                                         ; preds = %1
  %16 = getelementptr inbounds nuw i8, ptr %0, i64 44
  %wide.trip.count.i = zext nneg i32 %14 to i64
  br label %17

17:                                               ; preds = %17, %.lr.ph.i
  %indvars.iv.i = phi i64 [ 0, %.lr.ph.i ], [ %indvars.iv.next.i, %17 ]
  %18 = load i32, ptr %16, align 4, !tbaa !44
  %19 = load ptr, ptr %6, align 8, !tbaa !13
  %20 = getelementptr inbounds nuw i8, ptr %19, i64 40
  %21 = load ptr, ptr %20, align 8
  %22 = trunc i64 %indvars.iv.i to i32
  %23 = add i32 %11, %22
  %24 = tail call noundef ptr %21(ptr noundef nonnull align 8 dereferenceable(104) %6, i32 noundef %23, i32 noundef %18)
  %25 = load ptr, ptr %12, align 8, !tbaa !59
  %26 = getelementptr inbounds nuw ptr, ptr %25, i64 %indvars.iv.i
  store ptr %24, ptr %26, align 8, !tbaa !60
  %indvars.iv.next.i = add nuw nsw i64 %indvars.iv.i, 1
  %exitcond.not.i = icmp eq i64 %indvars.iv.next.i, %wide.trip.count.i
  br i1 %exitcond.not.i, label %_ZNK2cv4gapi5fluid13BufferStorage13updateInCacheERNS1_4View5CacheEii.exit, label %17, !llvm.loop !61

_ZNK2cv4gapi5fluid13BufferStorage13updateInCacheERNS1_4View5CacheEii.exit: ; preds = %17, %1
  ret void
}